target datalayout = "e-m:e-p270:32:32-p271:32:32-p272:64:64-i64:64-i128:128-f80:128-n8:16:32:64-S128"
target triple = "x86_64-pc-linux-gnu"

%struct.cli_bc_ctx = type { i8, i16, i32, ptr, ptr, i32, i32, ptr, ptr, ptr, i32, i32, i64, ptr, ptr, ptr, %struct.cli_bc_hooks, %struct.cli_exe_info, [64 x i32], [64 x i32], i32, ptr, ptr, i32, i32, i32, i32, ptr, i32, ptr, ptr, i32, i32, i32, i32, i32, i32, ptr, ptr, ptr, ptr, ptr, ptr, ptr, i32, i32, i32, i32, ptr, ptr, ptr, ptr, ptr, i32, i32, i32, i32, ptr, ptr, ptr, ptr, i32, i32, i32, ptr, i32, ptr, i32, i32, ptr, i32 }
%struct.cli_bc_hooks = type { ptr, ptr, ptr, ptr, ptr }
%struct.cli_exe_info = type { ptr, i32, i32, i16, i32, i32, %struct.cli_hashset, i32, i32, i32, i32, i32, i32, i32, i32, i32, %struct.pe_image_file_hdr, %union.anon, [16 x %struct.pe_image_data_dir] }
%struct.cli_hashset = type { ptr, ptr, ptr, i32, i32, i32, i32 }
%struct.pe_image_file_hdr = type { i32, i16, i16, i32, i32, i32, i16, i16 }
%union.anon = type { %struct.pe_image_optional_hdr64 }
%struct.pe_image_optional_hdr64 = type { i16, i8, i8, i32, i32, i32, i32, i32, i64, i32, i32, i16, i16, i16, i16, i16, i16, i32, i32, i32, i32, i16, i16, i64, i64, i64, i64, i32, i32 }
%struct.pe_image_data_dir = type { i32, i32 }
%struct.bc_buffer = type { ptr, i32, i32, i32 }

@.str.135 = private unnamed_addr constant [36 x i8] c"bytecode api: invalid buffer id %u\0A\00", align 1

; Function Attrs: nounwind uwtable
define internal ptr @get_buffer(ptr noundef %0, i32 noundef %1) #0 {
  %3 = alloca ptr, align 8
  %4 = alloca ptr, align 8
  %5 = alloca i32, align 4
  store ptr %0, ptr %4, align 8
  store i32 %1, ptr %5, align 4
  %6 = load ptr, ptr %4, align 8
  %7 = getelementptr inbounds %struct.cli_bc_ctx, ptr %6, i32 0, i32 52
  %8 = load ptr, ptr %7, align 8
  %9 = icmp ne ptr %8, null
  br i1 %9, label %10, label %19

10:                                               ; preds = %2
  %11 = load i32, ptr %5, align 4
  %12 = icmp slt i32 %11, 0
  br i1 %12, label %19, label %13

13:                                               ; preds = %10
  %14 = load i32, ptr %5, align 4
  %15 = load ptr, ptr %4, align 8
  %16 = getelementptr inbounds %struct.cli_bc_ctx, ptr %15, i32 0, i32 53
  %17 = load i32, ptr %16, align 8
  %18 = icmp uge i32 %14, %17
  br i1 %18, label %19, label %21

19:                                               ; preds = %13, %10, %2
  %20 = load i32, ptr %5, align 4
  call void (ptr, ...) @cli_dbgmsg(ptr noundef @.str.135, i32 noundef %20)
  store ptr null, ptr %3, align 8
  br label %28

21:                                               ; preds = %13
  %22 = load ptr, ptr %4, align 8
  %23 = getelementptr inbounds %struct.cli_bc_ctx, ptr %22, i32 0, i32 52
  %24 = load ptr, ptr %23, align 8
  %25 = load i32, ptr %5, align 4
  %26 = sext i32 %25 to i64
  %27 = getelementptr inbounds %struct.bc_buffer, ptr %24, i64 %26
  store ptr %27, ptr %3, align 8
  br label %28

28:                                               ; preds = %21, %19
  %29 = load ptr, ptr %3, align 8
  ret ptr %29
}

; Function Attrs: nounwind uwtable
define i32 @cli_bcapi_buffer_pipe_write_stopped(ptr noundef %0, i32 noundef %1, i32 noundef %2) #0 {
  %4 = alloca i32, align 4
  %5 = alloca ptr, align 8
  %6 = alloca i32, align 4
  %7 = alloca i32, align 4
  %8 = alloca ptr, align 8
  store ptr %0, ptr %5, align 8
  store i32 %1, ptr %6, align 4
  store i32 %2, ptr %7, align 4
  %9 = load ptr, ptr %5, align 8
  %10 = load i32, ptr %6, align 4
  %11 = call ptr @get_buffer(ptr noundef %9, i32 noundef %10)
  store ptr %11, ptr %8, align 8
  %12 = load ptr, ptr %8, align 8
  %13 = icmp ne ptr %12, null
  br i1 %13, label %14, label %19

14:                                               ; preds = %3
  %15 = load ptr, ptr %8, align 8
  %16 = getelementptr inbounds %struct.bc_buffer, ptr %15, i32 0, i32 0
  %17 = load ptr, ptr %16, align 8
  %18 = icmp ne ptr %17, null
  br i1 %18, label %20, label %19

19:                                               ; preds = %14, %3
  store i32 -1, ptr %4, align 4
  br label %43

20:                                               ; preds = %14
  %21 = load ptr, ptr %8, align 8
  %22 = getelementptr inbounds %struct.bc_buffer, ptr %21, i32 0, i32 2
  %23 = load i32, ptr %22, align 4
  %24 = load i32, ptr %7, align 4
  %25 = add i32 %23, %24
  %26 = load ptr, ptr %8, align 8
  %27 = getelementptr inbounds %struct.bc_buffer, ptr %26, i32 0, i32 1
  %28 = load i32, ptr %27, align 8
  %29 = icmp uge i32 %25, %28
  br i1 %29, label %30, label %36

30:                                               ; preds = %20
  %31 = load ptr, ptr %8, align 8
  %32 = getelementptr inbounds %struct.bc_buffer, ptr %31, i32 0, i32 1
  %33 = load i32, ptr %32, align 8
  %34 = load ptr, ptr %8, align 8
  %35 = getelementptr inbounds %struct.bc_buffer, ptr %34, i32 0, i32 2
  store i32 %33, ptr %35, align 4
  br label %42

36:                                               ; preds = %20
  %37 = load i32, ptr %7, align 4
  %38 = load ptr, ptr %8, align 8
  %39 = getelementptr inbounds %struct.bc_buffer, ptr %38, i32 0, i32 2
  %40 = load i32, ptr %39, align 4
  %41 = add i32 %40, %37
  store i32 %41, ptr %39, align 4
  br label %42

42:                                               ; preds = %36, %30
  store i32 0, ptr %4, align 4
  br label %43

43:                                               ; preds = %42, %19
  %44 = load i32, ptr %4, align 4
  ret i32 %44
}