; Function Attrs: nounwind uwtable
define noundef i32 @cli_bcapi_buffer_pipe_write_stopped(ptr nocapture noundef readonly %0, i32 noundef %1, i32 noundef %2) local_unnamed_addr #1 {
  %4 = getelementptr inbounds i8, ptr %0, i64 1224
  %5 = load ptr, ptr %4, align 8
  %6 = icmp eq ptr %5, null
  %7 = icmp slt i32 %1, 0
  %or.cond.i = or i1 %7, %6
  br i1 %or.cond.i, label %get_buffer.exit.thread, label %8

8:                                                ; preds = %3
  %9 = getelementptr inbounds i8, ptr %0, i64 1232
  %10 = load i32, ptr %9, align 8
  %.not.i = icmp ugt i32 %10, %1
  br i1 %.not.i, label %get_buffer.exit, label %get_buffer.exit.thread

get_buffer.exit.thread:                           ; preds = %3, %8
  tail call void (ptr, ...) @cli_dbgmsg(ptr noundef nonnull @.str.135, i32 noundef %1) #29
  br label %20

get_buffer.exit:                                  ; preds = %8
  %11 = zext nneg i32 %1 to i64
  %12 = getelementptr inbounds %struct.bc_buffer, ptr %5, i64 %11
  %13 = load ptr, ptr %12, align 8
  %.not14 = icmp eq ptr %13, null
  br i1 %.not14, label %20, label %14

14:                                               ; preds = %get_buffer.exit
  %15 = getelementptr inbounds i8, ptr %12, i64 12
  %16 = load i32, ptr %15, align 4
  %17 = add i32 %16, %2
  %18 = getelementptr inbounds i8, ptr %12, i64 8
  %19 = load i32, ptr %18, align 8
  %. = tail call i32 @llvm.umin.i32(i32 %17, i32 %19)
  store i32 %., ptr %15, align 4
  br label %20

20:                                               ; preds = %get_buffer.exit.thread, %get_buffer.exit, %14
  %.0 = phi i32 [ 0, %14 ], [ -1, %get_buffer.exit ], [ -1, %get_buffer.exit.thread ]
  ret i32 %.0
}